; Function Attrs: mustprogress uwtable
define void @_ZN6duckdb13SecretManager33ThrowOnSettingChangeIfInitializedEv(ptr noundef nonnull readonly align 8 captures(none) dereferenceable(344) %0) local_unnamed_addr #3 align 2 personality ptr @__gxx_personality_v0 {
  %2 = alloca %"class.std::__cxx11::basic_string", align 8
  %3 = alloca %"class.std::allocator.0", align 1
  %4 = getelementptr inbounds nuw i8, ptr %0, i64 216
  %5 = load atomic i8, ptr %4 seq_cst, align 8
  %6 = trunc i8 %5 to i1
  br i1 %6, label %7, label %21

7:                                                ; preds = %1
  %8 = tail call ptr @__cxa_allocate_exception(i64 16) #33
  call void @llvm.lifetime.start.p0(i64 32, ptr nonnull %2) #33
  call void @llvm.lifetime.start.p0(i64 1, ptr nonnull %3) #33
  invoke void @_ZNSt7__cxx1112basic_stringIcSt11char_traitsIcESaIcEEC2EPKcRKS3_(ptr noundef nonnull align 8 dereferenceable(32) %2, ptr noundef nonnull @.str.61, ptr noundef nonnull align 1 dereferenceable(1) %3)
          to label %9 unwind label %_ZNSt7__cxx1112basic_stringIcSt11char_traitsIcESaIcEED2Ev.exit.thread

9:                                                ; preds = %7
  invoke void @_ZN6duckdb21InvalidInputExceptionC1ERKNSt7__cxx1112basic_stringIcSt11char_traitsIcESaIcEEE(ptr noundef nonnull align 8 dereferenceable(16) %8, ptr noundef nonnull align 8 dereferenceable(32) %2)
          to label %10 unwind label %12

10:                                               ; preds = %9
  invoke void @__cxa_throw(ptr nonnull %8, ptr nonnull @_ZTIN6duckdb21InvalidInputExceptionE, ptr nonnull @_ZNSt13runtime_errorD2Ev) #35
          to label %23 unwind label %12

_ZNSt7__cxx1112basic_stringIcSt11char_traitsIcESaIcEED2Ev.exit.thread: ; preds = %7
  %11 = landingpad { ptr, i32 }
          cleanup
  call void @llvm.lifetime.end.p0(i64 1, ptr nonnull %3) #33
  call void @llvm.lifetime.end.p0(i64 32, ptr nonnull %2) #33
  br label %20

12:                                               ; preds = %10, %9
  %.0 = phi i1 [ false, %10 ], [ true, %9 ]
  %13 = landingpad { ptr, i32 }
          cleanup
  %14 = load ptr, ptr %2, align 8, !tbaa !14
  %15 = getelementptr inbounds nuw i8, ptr %2, i64 16
  %16 = icmp eq ptr %14, %15
  br i1 %16, label %_ZNKSt7__cxx1112basic_stringIcSt11char_traitsIcESaIcEE11_M_is_localEv.exit.thread.i.i, label %_ZNSt7__cxx1112basic_stringIcSt11char_traitsIcESaIcEED2Ev.exit

_ZNKSt7__cxx1112basic_stringIcSt11char_traitsIcESaIcEE11_M_is_localEv.exit.thread.i.i: ; preds = %12
  %17 = getelementptr inbounds nuw i8, ptr %2, i64 8
  %18 = load i64, ptr %17, align 8, !tbaa !8
  %19 = icmp ult i64 %18, 16
  call void @llvm.assume(i1 %19)
  call void @llvm.lifetime.end.p0(i64 1, ptr nonnull %3) #33
  call void @llvm.lifetime.end.p0(i64 32, ptr nonnull %2) #33
  br i1 %.0, label %20, label %22

_ZNSt7__cxx1112basic_stringIcSt11char_traitsIcESaIcEED2Ev.exit: ; preds = %12
  call void @_ZdlPv(ptr noundef %14) #34
  call void @llvm.lifetime.end.p0(i64 1, ptr nonnull %3) #33
  call void @llvm.lifetime.end.p0(i64 32, ptr nonnull %2) #33
  br i1 %.0, label %20, label %22

20:                                               ; preds = %_ZNKSt7__cxx1112basic_stringIcSt11char_traitsIcESaIcEE11_M_is_localEv.exit.thread.i.i, %_ZNSt7__cxx1112basic_stringIcSt11char_traitsIcESaIcEED2Ev.exit.thread, %_ZNSt7__cxx1112basic_stringIcSt11char_traitsIcESaIcEED2Ev.exit
  %.pn9 = phi { ptr, i32 } [ %11, %_ZNSt7__cxx1112basic_stringIcSt11char_traitsIcESaIcEED2Ev.exit.thread ], [ %13, %_ZNSt7__cxx1112basic_stringIcSt11char_traitsIcESaIcEED2Ev.exit ], [ %13, %_ZNKSt7__cxx1112basic_stringIcSt11char_traitsIcESaIcEE11_M_is_localEv.exit.thread.i.i ]
  call void @__cxa_free_exception(ptr %8) #33
  br label %22

21:                                               ; preds = %1
  ret void

22:                                               ; preds = %_ZNKSt7__cxx1112basic_stringIcSt11char_traitsIcESaIcEE11_M_is_localEv.exit.thread.i.i, %_ZNSt7__cxx1112basic_stringIcSt11char_traitsIcESaIcEED2Ev.exit, %20
  %.pn8 = phi { ptr, i32 } [ %13, %_ZNSt7__cxx1112basic_stringIcSt11char_traitsIcESaIcEED2Ev.exit ], [ %.pn9, %20 ], [ %13, %_ZNKSt7__cxx1112basic_stringIcSt11char_traitsIcESaIcEE11_M_is_localEv.exit.thread.i.i ]
  resume { ptr, i32 } %.pn8

23:                                               ; preds = %10
  unreachable
}